; Function Attrs: mustprogress uwtable
define void @_Z20gmx_ana_poscalc_freeP17gmx_ana_poscalc_t(ptr noundef %0) local_unnamed_addr #0 {
  %.not = icmp eq ptr %0, null
  br i1 %.not, label %63, label %2

2:                                                ; preds = %1
  %3 = getelementptr inbounds nuw i8, ptr %0, i64 128
  %4 = load i32, ptr %3, align 8, !tbaa !58
  %5 = add nsw i32 %4, -1
  store i32 %5, ptr %3, align 8, !tbaa !58
  %6 = icmp sgt i32 %4, 1
  br i1 %6, label %63, label %7

7:                                                ; preds = %2
  %8 = getelementptr inbounds nuw i8, ptr %0, i64 136
  %9 = load ptr, ptr %8, align 8, !tbaa !70
  %10 = getelementptr inbounds nuw i8, ptr %0, i64 120
  %11 = load ptr, ptr %10, align 8, !tbaa !71
  %.not.i = icmp eq ptr %11, null
  br i1 %.not.i, label %16, label %12

12:                                               ; preds = %7
  %13 = getelementptr inbounds nuw i8, ptr %0, i64 112
  %14 = load ptr, ptr %13, align 8, !tbaa !72
  %15 = getelementptr inbounds nuw i8, ptr %11, i64 112
  store ptr %14, ptr %15, align 8, !tbaa !72
  br label %._crit_edge.i

16:                                               ; preds = %7
  %17 = getelementptr inbounds nuw i8, ptr %9, i64 8
  %18 = load ptr, ptr %17, align 8, !tbaa !73
  %19 = icmp eq ptr %0, %18
  %20 = getelementptr inbounds nuw i8, ptr %0, i64 112
  %21 = load ptr, ptr %20, align 8, !tbaa !72
  br i1 %19, label %22, label %._crit_edge.i

22:                                               ; preds = %16
  store ptr %21, ptr %17, align 8, !tbaa !73
  br label %._crit_edge.i

._crit_edge.i:                                    ; preds = %22, %16, %12
  %23 = phi ptr [ %21, %22 ], [ %14, %12 ], [ %21, %16 ]
  %.not16.i = icmp eq ptr %23, null
  br i1 %.not16.i, label %26, label %24

24:                                               ; preds = %._crit_edge.i
  %25 = getelementptr inbounds nuw i8, ptr %23, i64 120
  store ptr %11, ptr %25, align 8, !tbaa !71
  br label %_ZN3gmx29PositionCalculationCollection4Impl17removeCalculationEP17gmx_ana_poscalc_t.exit

26:                                               ; preds = %._crit_edge.i
  %27 = getelementptr inbounds nuw i8, ptr %9, i64 16
  %28 = load ptr, ptr %27, align 8, !tbaa !48
  %29 = icmp eq ptr %0, %28
  br i1 %29, label %30, label %_ZN3gmx29PositionCalculationCollection4Impl17removeCalculationEP17gmx_ana_poscalc_t.exit

30:                                               ; preds = %26
  store ptr %11, ptr %27, align 8, !tbaa !48
  br label %_ZN3gmx29PositionCalculationCollection4Impl17removeCalculationEP17gmx_ana_poscalc_t.exit

_ZN3gmx29PositionCalculationCollection4Impl17removeCalculationEP17gmx_ana_poscalc_t.exit: ; preds = %24, %26, %30
  %31 = getelementptr inbounds nuw i8, ptr %0, i64 112
  tail call void @llvm.memset.p0.i64(ptr noundef nonnull align 8 dereferenceable(16) %31, i8 0, i64 16, i1 false)
  %32 = getelementptr inbounds nuw i8, ptr %0, i64 48
  %33 = load i32, ptr %32, align 8, !tbaa !74
  %34 = icmp sgt i32 %33, 0
  br i1 %34, label %35, label %38

35:                                               ; preds = %_ZN3gmx29PositionCalculationCollection4Impl17removeCalculationEP17gmx_ana_poscalc_t.exit
  %36 = getelementptr inbounds nuw i8, ptr %0, i64 24
  %37 = load ptr, ptr %36, align 8, !tbaa !75
  tail call void @_Z9save_freePKcS0_iPv(ptr noundef nonnull @.str.54, ptr noundef nonnull @.str.18, i32 noundef 1143, ptr noundef %37)
  br label %38

38:                                               ; preds = %35, %_ZN3gmx29PositionCalculationCollection4Impl17removeCalculationEP17gmx_ana_poscalc_t.exit
  %39 = getelementptr inbounds nuw i8, ptr %0, i64 52
  %40 = load i32, ptr %39, align 4, !tbaa !76
  %41 = icmp sgt i32 %40, 0
  br i1 %41, label %42, label %45

42:                                               ; preds = %38
  %43 = getelementptr inbounds nuw i8, ptr %0, i64 40
  %44 = load ptr, ptr %43, align 8, !tbaa !77
  tail call void @_Z9save_freePKcS0_iPv(ptr noundef nonnull @.str.55, ptr noundef nonnull @.str.18, i32 noundef 1147, ptr noundef %44)
  br label %45

45:                                               ; preds = %42, %38
  %46 = getelementptr inbounds nuw i8, ptr %0, i64 4
  %47 = load i32, ptr %46, align 4, !tbaa !78
  %48 = and i32 %47, 4
  %.not18 = icmp eq i32 %48, 0
  br i1 %.not18, label %51, label %49

49:                                               ; preds = %45
  %50 = getelementptr inbounds nuw i8, ptr %0, i64 64
  tail call void @_Z20gmx_ana_index_deinitP15gmx_ana_index_t(ptr noundef nonnull %50)
  br label %51

51:                                               ; preds = %49, %45
  %52 = getelementptr inbounds nuw i8, ptr %0, i64 88
  %53 = load ptr, ptr %52, align 8, !tbaa !79
  %54 = icmp eq ptr %53, null
  br i1 %54, label %56, label %55

55:                                               ; preds = %51
  tail call void @_ZN13gmx_ana_pos_tD1Ev(ptr noundef nonnull align 8 dereferenceable(148) %53) #26
  tail call void @_ZdlPvm(ptr noundef nonnull %53, i64 noundef 152) #30
  br label %56

56:                                               ; preds = %55, %51
  %57 = getelementptr inbounds nuw i8, ptr %0, i64 104
  %58 = load ptr, ptr %57, align 8, !tbaa !80
  %.not19 = icmp eq ptr %58, null
  br i1 %.not19, label %62, label %59

59:                                               ; preds = %56
  tail call void @_Z20gmx_ana_poscalc_freeP17gmx_ana_poscalc_t(ptr noundef nonnull %58)
  %60 = getelementptr inbounds nuw i8, ptr %0, i64 56
  %61 = load ptr, ptr %60, align 8, !tbaa !81
  tail call void @_Z9save_freePKcS0_iPv(ptr noundef nonnull @.str.53, ptr noundef nonnull @.str.18, i32 noundef 1157, ptr noundef %61)
  br label %62

62:                                               ; preds = %59, %56
  tail call void @_Z9save_freePKcS0_iPv(ptr noundef nonnull @.str.23, ptr noundef nonnull @.str.18, i32 noundef 1159, ptr noundef nonnull %0)
  br label %63

63:                                               ; preds = %2, %1, %62
  ret void
}